; Function Attrs: mustprogress null_pointer_is_valid sspstrong uwtable
define noundef zeroext i1 @_ZNK25DissectorTablesProxyModel8lessThanERK11QModelIndexS2_(ptr noundef readnone align 8 captures(none) dereferenceable_or_null(88) %0, ptr noundef readonly align 8 captures(none) dereferenceable(24) %1, ptr noundef readonly align 8 captures(none) dereferenceable(24) %2) unnamed_addr #5 align 2 {
  %4 = getelementptr inbounds nuw i8, ptr %1, i64 8
  %5 = load i64, ptr %4, align 8
  %6 = getelementptr inbounds nuw i8, ptr %2, i64 8
  %7 = load i64, ptr %6, align 8
  %8 = icmp ne i64 %5, 0
  %9 = icmp ne i64 %7, 0
  %or.cond = and i1 %8, %9
  br i1 %or.cond, label %10, label %17

10:                                               ; preds = %3
  %11 = inttoptr i64 %7 to ptr
  %12 = inttoptr i64 %5 to ptr
  %13 = load ptr, ptr %12, align 8
  %14 = getelementptr inbounds nuw i8, ptr %13, i64 16
  %15 = load ptr, ptr %14, align 8
  %16 = tail call noundef zeroext i1 %15(ptr noundef nonnull align 8 dereferenceable_or_null(88) %12, ptr noundef nonnull align 8 dereferenceable(88) %11)
  br label %17

17:                                               ; preds = %3, %10
  %.0 = phi i1 [ %16, %10 ], [ false, %3 ]
  ret i1 %.0
}